; Function Attrs: mustprogress uwtable
define dso_local void @_ZN3net22QuicCryptoServerConfig23SetStrikeRegisterClientEPNS_20StrikeRegisterClientE(ptr noundef nonnull align 8 dereferenceable(405) %this, ptr noundef %strike_register_client) local_unnamed_addr #0 align 2 personality ptr @__gxx_personality_v0 {
entry:
  %strike_register_client_lock_ = getelementptr inbounds i8, ptr %this, i64 128
  tail call void @_ZN4base8internal8LockImpl4LockEv(ptr noundef nonnull align 8 dereferenceable(40) %strike_register_client_lock_)
  %strike_register_client_ = getelementptr inbounds i8, ptr %this, i64 168
  %0 = load ptr, ptr %strike_register_client_, align 8
  store ptr %strike_register_client, ptr %strike_register_client_, align 8
  %tobool.not.i.i = icmp eq ptr %0, null
  br i1 %tobool.not.i.i, label %_ZNSt10unique_ptrIN3net20StrikeRegisterClientESt14default_deleteIS1_EE5resetEPS1_.exit, label %_ZNKSt14default_deleteIN3net20StrikeRegisterClientEEclEPS1_.exit.i.i

_ZNKSt14default_deleteIN3net20StrikeRegisterClientEEclEPS1_.exit.i.i: ; preds = %entry
  %vtable.i.i.i = load ptr, ptr %0, align 8
  %vfn.i.i.i = getelementptr inbounds i8, ptr %vtable.i.i.i, i64 8
  %1 = load ptr, ptr %vfn.i.i.i, align 8
  tail call void %1(ptr noundef nonnull align 8 dereferenceable(8) %0) #20
  br label %_ZNSt10unique_ptrIN3net20StrikeRegisterClientESt14default_deleteIS1_EE5resetEPS1_.exit

_ZNSt10unique_ptrIN3net20StrikeRegisterClientESt14default_deleteIS1_EE5resetEPS1_.exit: ; preds = %entry, %_ZNKSt14default_deleteIN3net20StrikeRegisterClientEEclEPS1_.exit.i.i
  invoke void @_ZN4base8internal8LockImpl6UnlockEv(ptr noundef nonnull align 8 dereferenceable(40) %strike_register_client_lock_)
          to label %_ZN4base8AutoLockD2Ev.exit unwind label %terminate.lpad.i

terminate.lpad.i:                                 ; preds = %_ZNSt10unique_ptrIN3net20StrikeRegisterClientESt14default_deleteIS1_EE5resetEPS1_.exit
  %2 = landingpad { ptr, i32 }
          catch ptr null
  %3 = extractvalue { ptr, i32 } %2, 0
  tail call void @__clang_call_terminate(ptr %3) #24
  unreachable

_ZN4base8AutoLockD2Ev.exit:                       ; preds = %_ZNSt10unique_ptrIN3net20StrikeRegisterClientESt14default_deleteIS1_EE5resetEPS1_.exit
  ret void
}